target datalayout = "e-m:e-p270:32:32-p271:32:32-p272:64:64-i64:64-i128:128-f80:128-n8:16:32:64-S128"
target triple = "x86_64-pc-linux-gnu"

%struct.expert_field = type { i32, i32 }
%struct._xml_frame_t = type { i32, ptr, ptr, ptr, ptr, ptr, ptr, ptr, ptr, ptr, ptr, ptr, ptr, i32, i32, ptr, ptr }
%struct._GPtrArray = type { ptr, i32 }
%struct._tvbparse_elem_t = type { i32, ptr, ptr, i32, i32, ptr, ptr, ptr, ptr, ptr }

@ei_xml_closing_unopened_tag = internal global %struct.expert_field zeroinitializer, align 4
@.str.244 = private unnamed_addr constant [3 x i8] c"/>\00", align 1

; Function Attrs: null_pointer_is_valid sspstrong uwtable
define internal void @after_closed_tag(ptr noundef %0, ptr noundef %1, ptr noundef %2) #3 {
  %4 = alloca ptr, align 8
  %5 = alloca ptr, align 8
  %6 = alloca ptr, align 8
  %7 = alloca ptr, align 8
  %8 = alloca ptr, align 8
  store ptr %0, ptr %4, align 8
  store ptr %1, ptr %5, align 8
  store ptr %2, ptr %6, align 8
  call void @llvm.lifetime.start.p0(i64 8, ptr %7) #10
  %9 = load ptr, ptr %4, align 8
  store ptr %9, ptr %7, align 8
  call void @llvm.lifetime.start.p0(i64 8, ptr %8) #10
  %10 = load ptr, ptr %7, align 8
  %11 = getelementptr inbounds nuw %struct._GPtrArray, ptr %10, i32 0, i32 0
  %12 = load ptr, ptr %11, align 8
  %13 = load ptr, ptr %7, align 8
  %14 = getelementptr inbounds nuw %struct._GPtrArray, ptr %13, i32 0, i32 1
  %15 = load i32, ptr %14, align 8
  %16 = sub i32 %15, 1
  %17 = zext i32 %16 to i64
  %18 = getelementptr ptr, ptr %12, i64 %17
  %19 = load ptr, ptr %18, align 8
  store ptr %19, ptr %8, align 8
  %20 = load ptr, ptr %8, align 8
  %21 = getelementptr inbounds nuw %struct._xml_frame_t, ptr %20, i32 0, i32 11
  %22 = load ptr, ptr %21, align 8
  call void (ptr, ptr, ...) @proto_item_append_text(ptr noundef %22, ptr noundef @.str.244)
  %23 = load ptr, ptr %7, align 8
  %24 = getelementptr inbounds nuw %struct._GPtrArray, ptr %23, i32 0, i32 1
  %25 = load i32, ptr %24, align 8
  %26 = icmp ugt i32 %25, 1
  br i1 %26, label %27, label %34

27:                                               ; preds = %3
  %28 = load ptr, ptr %7, align 8
  %29 = load ptr, ptr %7, align 8
  %30 = getelementptr inbounds nuw %struct._GPtrArray, ptr %29, i32 0, i32 1
  %31 = load i32, ptr %30, align 8
  %32 = sub i32 %31, 1
  %33 = call ptr @g_ptr_array_remove_index_fast(ptr noundef %28, i32 noundef %32)
  br label %51

34:                                               ; preds = %3
  %35 = load ptr, ptr %8, align 8
  %36 = getelementptr inbounds nuw %struct._xml_frame_t, ptr %35, i32 0, i32 9
  %37 = load ptr, ptr %36, align 8
  %38 = load ptr, ptr %8, align 8
  %39 = getelementptr inbounds nuw %struct._xml_frame_t, ptr %38, i32 0, i32 15
  %40 = load ptr, ptr %39, align 8
  %41 = load ptr, ptr %6, align 8
  %42 = getelementptr inbounds nuw %struct._tvbparse_elem_t, ptr %41, i32 0, i32 2
  %43 = load ptr, ptr %42, align 8
  %44 = load ptr, ptr %6, align 8
  %45 = getelementptr inbounds nuw %struct._tvbparse_elem_t, ptr %44, i32 0, i32 3
  %46 = load i32, ptr %45, align 8
  %47 = load ptr, ptr %6, align 8
  %48 = getelementptr inbounds nuw %struct._tvbparse_elem_t, ptr %47, i32 0, i32 4
  %49 = load i32, ptr %48, align 4
  %50 = call ptr @proto_tree_add_expert(ptr noundef %37, ptr noundef %40, ptr noundef @ei_xml_closing_unopened_tag, ptr noundef %43, i32 noundef %46, i32 noundef %49)
  br label %51

51:                                               ; preds = %34, %27
  call void @llvm.lifetime.end.p0(i64 8, ptr %8) #10
  call void @llvm.lifetime.end.p0(i64 8, ptr %7) #10
  ret void
}