; Function Attrs: null_pointer_is_valid sspstrong uwtable
define internal void @after_closed_tag(ptr noundef %0, ptr readnone captures(none) %1, ptr noundef readonly captures(none) %2) #4 {
  %4 = load ptr, ptr %0, align 8
  %5 = getelementptr inbounds nuw i8, ptr %0, i64 8
  %6 = load i32, ptr %5, align 8
  %7 = add i32 %6, -1
  %8 = zext i32 %7 to i64
  %9 = getelementptr ptr, ptr %4, i64 %8
  %10 = load ptr, ptr %9, align 8
  %11 = getelementptr inbounds nuw i8, ptr %10, i64 88
  %12 = load ptr, ptr %11, align 8
  tail call void (ptr, ptr, ...) @proto_item_append_text(ptr noundef %12, ptr noundef nonnull @.str.244)
  %13 = load i32, ptr %5, align 8
  %14 = icmp ugt i32 %13, 1
  br i1 %14, label %15, label %18

15:                                               ; preds = %3
  %16 = add i32 %13, -1
  %17 = tail call ptr @g_ptr_array_remove_index_fast(ptr noundef %0, i32 noundef %16)
  br label %30

18:                                               ; preds = %3
  %19 = getelementptr inbounds nuw i8, ptr %10, i64 72
  %20 = load ptr, ptr %19, align 8
  %21 = getelementptr inbounds nuw i8, ptr %10, i64 112
  %22 = load ptr, ptr %21, align 8
  %23 = getelementptr inbounds nuw i8, ptr %2, i64 16
  %24 = load ptr, ptr %23, align 8
  %25 = getelementptr inbounds nuw i8, ptr %2, i64 24
  %26 = load i32, ptr %25, align 8
  %27 = getelementptr inbounds nuw i8, ptr %2, i64 28
  %28 = load i32, ptr %27, align 4
  %29 = tail call ptr @proto_tree_add_expert(ptr noundef %20, ptr noundef %22, ptr noundef nonnull @ei_xml_closing_unopened_tag, ptr noundef %24, i32 noundef %26, i32 noundef %28)
  br label %30

30:                                               ; preds = %18, %15
  ret void
}